Certificate:
    Data:
        Version: 3 (0x2)
        Serial Number: 1 (0x1)
        Signature Algorithm: sha1WithRSAEncryption
        Issuer: DC=org, DC=simple, O=Simple Inc, OU=Simple Signing CA, CN=Simple Signing CA
        Validity
            Not Before: Nov 16 21:59:48 2021 GMT
            Not After : Nov 16 21:59:48 2023 GMT
        Subject: DC=org, DC=simple, O=Simple Inc, CN=Fred Flintstone
        Subject Public Key Info:
            Public Key Algorithm: rsaEncryption
                RSA Public-Key: (2048 bit)
                Modulus:
                    00:cf:0d:00:a1:bd:c1:62:c4:49:23:95:2a:15:03:
                    87:77:70:87:9c:84:0d:b6:14:22:92:3e:97:b4:15:
                    b8:af:8e:a2:5f:59:32:dc:25:3e:d1:98:44:33:a4:
                    06:91:d5:b1:62:c8:ae:79:4a:1d:23:ce:b3:61:26:
                    32:ca:be:e2:ab:09:7d:fe:6c:d2:67:fa:12:99:03:
                    84:04:dc:e0:3e:89:df:78:33:ca:43:3e:38:22:e2:
                    9c:94:4e:f5:1f:ba:36:22:bb:bb:30:8b:4b:fc:f9:
                    de:f7:86:76:79:68:46:7a:17:2c:ff:f0:87:85:22:
                    16:96:bb:bd:7b:1a:46:14:f6:25:74:b1:c0:85:4d:
                    91:1d:a8:31:90:80:b0:80:cd:c1:1a:11:e9:a3:b3:
                    e2:05:21:ed:d6:d1:91:27:79:8c:fb:10:cc:88:dd:
                    57:42:be:bc:47:db:4c:c5:e1:0e:8d:9d:b1:f5:14:
                    37:5a:a6:bc:0e:88:d7:1f:9d:04:d7:1c:eb:e5:5f:
                    4d:35:ce:9a:3e:2e:f1:fe:70:c7:bc:50:49:4d:8c:
                    a4:74:e5:8c:17:7f:62:94:69:34:d3:37:23:6a:e7:
                    1b:d2:2c:d1:c4:81:2d:41:88:94:be:16:3f:83:b3:
                    3b:20:c4:61:8a:3f:c6:5d:27:60:ca:ad:91:c8:dc:
                    1f:07
                Exponent: 65537 (0x10001)
        X509v3 extensions:
            X509v3 Key Usage: critical
                Digital Signature, Key Encipherment
            X509v3 Basic Constraints: 
                CA:FALSE
            X509v3 Extended Key Usage: 
                E-mail Protection, TLS Web Client Authentication
            X509v3 Subject Key Identifier: 
                C4:DF:C3:43:25:82:97:A1:5A:51:87:71:7E:D2:61:9B:6D:83:28:20
            X509v3 Authority Key Identifier: 
                keyid:D9:E0:E3:39:CC:30:E8:19:60:ED:FF:74:9A:0B:43:34:0C:A4:FD:CC

            X509v3 Subject Alternative Name: 
                email:fred@simple.org
    Signature Algorithm: sha1WithRSAEncryption
         5a:3d:13:73:5d:25:f3:d2:92:a1:4a:55:03:ea:92:d0:3e:af:
         87:e0:28:4c:d5:2d:9a:a9:ef:07:26:6c:18:85:5f:5b:ec:ad:
         c6:46:24:8e:f7:b3:26:05:0a:4f:60:3e:f6:fa:8b:83:1b:86:
         1e:a6:37:78:a2:00:85:6a:4c:d9:61:a1:ec:f9:4e:5e:8f:43:
         a9:6c:d2:c4:17:cf:54:74:2e:74:72:9c:80:c4:16:3c:bf:14:
         53:dc:8c:15:5d:fc:14:34:36:1e:ff:43:8b:3f:de:a0:8a:59:
         88:1f:9e:eb:1b:a3:60:1e:c3:df:9a:60:b0:5f:92:e5:0b:b5:
         a3:09:57:36:ca:e8:63:ac:2d:da:1c:71:77:a3:a8:83:63:ec:
         37:90:d3:cb:2e:cb:1c:bc:94:e2:c8:9e:f0:13:da:79:41:eb:
         66:fb:f8:63:91:0c:38:f9:72:48:e7:ce:cf:48:32:dd:00:b5:
         36:4b:73:dc:fc:22:29:98:80:d9:ed:c1:5b:c8:62:62:1c:10:
         4a:49:ed:1a:a6:85:7a:b3:9d:2c:0f:4e:c7:dc:39:51:7f:00:
         f9:4b:81:c1:69:af:e8:02:51:18:15:3f:04:00:e1:6a:78:a4:
         6e:99:23:2b:51:4f:0f:40:b6:99:ac:28:2c:cf:c5:ec:96:56:
         11:d8:c9:04
-----BEGIN CERTIFICATE-----
MIID6zCCAtOgAwIBAgIBATANBgkqhkiG9w0BAQUFADB6MRMwEQYKCZImiZPyLGQB
GRYDb3JnMRYwFAYKCZImiZPyLGQBGRYGc2ltcGxlMRMwEQYDVQQKDApTaW1wbGUg
SW5jMRowGAYDVQQLDBFTaW1wbGUgU2lnbmluZyBDQTEaMBgGA1UEAwwRU2ltcGxl
IFNpZ25pbmcgQ0EwHhcNMjExMTE2MjE1OTQ4WhcNMjMxMTE2MjE1OTQ4WjBcMRMw
EQYKCZImiZPyLGQBGRYDb3JnMRYwFAYKCZImiZPyLGQBGRYGc2ltcGxlMRMwEQYD
VQQKDApTaW1wbGUgSW5jMRgwFgYDVQQDDA9GcmVkIEZsaW50c3RvbmUwggEiMA0G
CSqGSIb3DQEBAQUAA4IBDwAwggEKAoIBAQDPDQChvcFixEkjlSoVA4d3cIechA22
FCKSPpe0FbivjqJfWTLcJT7RmEQzpAaR1bFiyK55Sh0jzrNhJjLKvuKrCX3+bNJn
+hKZA4QE3OA+id94M8pDPjgi4pyUTvUfujYiu7swi0v8+d73hnZ5aEZ6Fyz/8IeF
IhaWu717GkYU9iV0scCFTZEdqDGQgLCAzcEaEemjs+IFIe3W0ZEneYz7EMyI3VdC
vrxH20zF4Q6NnbH1FDdaprwOiNcfnQTXHOvlX001zpo+LvH+cMe8UElNjKR05YwX
f2KUaTTTNyNq5xvSLNHEgS1BiJS+Fj+DszsgxGGKP8ZdJ2DKrZHI3B8HAgMBAAGj
gZkwgZYwDgYDVR0PAQH/BAQDAgWgMAkGA1UdEwQCMAAwHQYDVR0lBBYwFAYIKwYB
BQUHAwQGCCsGAQUFBwMCMB0GA1UdDgQWBBTE38NDJYKXoVpRh3F+0mGbbYMoIDAf
BgNVHSMEGDAWgBTZ4OM5zDDoGWDt/3SaC0M0DKT9zDAaBgNVHREEEzARgQ9mcmVk
QHNpbXBsZS5vcmcwDQYJKoZIhvcNAQEFBQADggEBAFo9E3NdJfPSkqFKVQPqktA+
r4fgKEzVLZqp7wcmbBiFX1vsrcZGJI73syYFCk9gPvb6i4Mbhh6mN3iiAIVqTNlh
oez5Tl6PQ6ls0sQXz1R0LnRynIDEFjy/FFPcjBVd/BQ0Nh7/Q4s/3qCKWYgfnusb
o2Aew9+aYLBfkuULtaMJVzbK6GOsLdoccXejqINj7DeQ08suyxy8lOLInvAT2nlB
62b7+GORDDj5ckjnzs9IMt0AtTZLc9z8IimYgNntwVvIYmIcEEpJ7RqmhXqznSwP
TsfcOVF/APlLgcFpr+gCURgVPwQA4Wp4pG6ZIytRTw9AtpmsKCzPxeyWVhHYyQQ=
-----END CERTIFICATE-----
