Certificate:
    Data:
        Version: 3 (0x2)
        Serial Number: 1 (0x1)
        Signature Algorithm: sha1WithRSAEncryption
        Issuer: DC=org, DC=simple, O=Simple Inc, OU=Simple Root CA, CN=Simple Root CA
        Validity
            Not Before: Nov 16 21:32:58 2021 GMT
            Not After : Nov 16 21:32:58 2031 GMT
        Subject: DC=org, DC=simple, O=Simple Inc, OU=Simple Root CA, CN=Simple Root CA
        Subject Public Key Info:
            Public Key Algorithm: rsaEncryption
                RSA Public-Key: (2048 bit)
                Modulus:
                    00:be:6e:6e:16:08:45:fe:fc:99:6c:14:b9:10:47:
                    0b:af:0e:f6:cc:67:e9:d9:4e:d4:0f:d8:e2:1c:93:
                    e3:93:df:ce:db:4f:20:7d:02:c9:a6:2a:ef:c2:39:
                    0d:15:d5:10:8d:fb:71:cd:40:34:84:a5:25:d2:f0:
                    1e:0a:13:9f:d5:af:b4:91:13:23:1c:55:a4:2e:00:
                    cd:f9:50:f6:bf:f7:34:a7:0d:96:ac:cb:22:64:a2:
                    63:63:6c:3b:65:d3:b7:bc:93:08:52:05:60:5d:2a:
                    89:79:27:84:d8:25:82:db:b1:e4:a4:45:4b:49:29:
                    62:78:60:5b:67:c5:7d:7e:5d:cb:35:a5:fa:a7:3d:
                    8f:25:f7:c7:30:33:97:39:e3:ea:27:b9:df:8c:34:
                    18:f1:25:12:d4:55:11:d3:7d:a3:3f:ad:8a:83:e7:
                    e0:e1:3d:1d:1b:96:ea:fe:73:29:2f:cb:99:67:fb:
                    0f:d0:77:9d:81:fe:0c:e7:20:12:4c:71:6d:73:98:
                    07:9d:e8:95:56:61:fa:e7:1b:54:35:2a:52:0d:b8:
                    5d:0f:73:04:db:fc:07:cb:17:f8:be:c3:46:a6:36:
                    ee:6d:96:ba:50:f5:2f:2f:15:13:d9:c5:a2:9d:94:
                    82:b8:bd:8b:ad:1c:1c:37:9e:07:f8:a3:18:11:0e:
                    12:37
                Exponent: 65537 (0x10001)
        X509v3 extensions:
            X509v3 Key Usage: critical
                Certificate Sign, CRL Sign
            X509v3 Basic Constraints: critical
                CA:TRUE
            X509v3 Subject Key Identifier: 
                DD:86:DC:1D:AD:D1:40:B8:3B:A5:3B:28:A5:89:D6:74:5F:2B:BD:9A
            X509v3 Authority Key Identifier: 
                keyid:DD:86:DC:1D:AD:D1:40:B8:3B:A5:3B:28:A5:89:D6:74:5F:2B:BD:9A

    Signature Algorithm: sha1WithRSAEncryption
         15:b7:34:b8:d6:b4:95:a6:79:4c:91:74:80:76:6f:4b:7e:f0:
         08:cb:4e:49:ac:ad:68:82:09:3b:32:64:da:a2:c5:52:aa:af:
         cf:b1:95:3a:ce:8e:9d:fa:ce:ff:e8:b1:b7:7b:ca:ba:ec:7e:
         6a:da:c1:ea:ea:16:f7:8b:4a:a8:d4:3f:66:36:51:b4:74:84:
         2c:a7:48:7d:a5:f2:a9:a3:ae:e1:80:e6:a9:01:2d:86:51:86:
         1e:16:79:4f:5c:3c:dd:95:85:aa:a9:ae:75:30:db:c8:3d:d2:
         16:ed:dd:01:5e:62:5f:9f:16:5a:a7:67:3b:4e:6c:14:f7:1f:
         a0:f4:db:79:4c:0a:30:93:59:00:a2:c7:83:bf:28:04:40:c9:
         03:43:f6:ef:f8:82:6e:a9:14:cb:09:18:92:9f:92:20:84:b3:
         a9:8f:bd:13:88:f3:e8:28:99:70:1e:98:c3:08:55:a7:a8:d6:
         b5:82:41:e1:d2:e5:ac:90:6d:33:4f:b7:f5:83:eb:a9:a8:48:
         8a:cc:3d:c7:ce:54:03:c4:e7:a9:59:de:7c:21:79:63:fe:de:
         4f:da:1f:57:ef:5f:a7:7d:d9:1a:b4:47:91:69:ee:8d:58:8f:
         7e:79:b0:d3:0f:9a:b5:42:e8:1d:74:89:f6:3b:37:bd:85:f4:
         84:a7:9d:cd
-----BEGIN CERTIFICATE-----
MIIDxjCCAq6gAwIBAgIBATANBgkqhkiG9w0BAQUFADB0MRMwEQYKCZImiZPyLGQB
GRYDb3JnMRYwFAYKCZImiZPyLGQBGRYGc2ltcGxlMRMwEQYDVQQKDApTaW1wbGUg
SW5jMRcwFQYDVQQLDA5TaW1wbGUgUm9vdCBDQTEXMBUGA1UEAwwOU2ltcGxlIFJv
b3QgQ0EwHhcNMjExMTE2MjEzMjU4WhcNMzExMTE2MjEzMjU4WjB0MRMwEQYKCZIm
iZPyLGQBGRYDb3JnMRYwFAYKCZImiZPyLGQBGRYGc2ltcGxlMRMwEQYDVQQKDApT
aW1wbGUgSW5jMRcwFQYDVQQLDA5TaW1wbGUgUm9vdCBDQTEXMBUGA1UEAwwOU2lt
cGxlIFJvb3QgQ0EwggEiMA0GCSqGSIb3DQEBAQUAA4IBDwAwggEKAoIBAQC+bm4W
CEX+/JlsFLkQRwuvDvbMZ+nZTtQP2OIck+OT387bTyB9AsmmKu/COQ0V1RCN+3HN
QDSEpSXS8B4KE5/Vr7SREyMcVaQuAM35UPa/9zSnDZasyyJkomNjbDtl07e8kwhS
BWBdKol5J4TYJYLbseSkRUtJKWJ4YFtnxX1+Xcs1pfqnPY8l98cwM5c54+onud+M
NBjxJRLUVRHTfaM/rYqD5+DhPR0blur+cykvy5ln+w/Qd52B/gznIBJMcW1zmAed
6JVWYfrnG1Q1KlINuF0PcwTb/AfLF/i+w0amNu5tlrpQ9S8vFRPZxaKdlIK4vYut
HBw3ngf4oxgRDhI3AgMBAAGjYzBhMA4GA1UdDwEB/wQEAwIBBjAPBgNVHRMBAf8E
BTADAQH/MB0GA1UdDgQWBBTdhtwdrdFAuDulOyilidZ0Xyu9mjAfBgNVHSMEGDAW
gBTdhtwdrdFAuDulOyilidZ0Xyu9mjANBgkqhkiG9w0BAQUFAAOCAQEAFbc0uNa0
laZ5TJF0gHZvS37wCMtOSaytaIIJOzJk2qLFUqqvz7GVOs6OnfrO/+ixt3vKuux+
atrB6uoW94tKqNQ/ZjZRtHSELKdIfaXyqaOu4YDmqQEthlGGHhZ5T1w83ZWFqqmu
dTDbyD3SFu3dAV5iX58WWqdnO05sFPcfoPTbeUwKMJNZAKLHg78oBEDJA0P27/iC
bqkUywkYkp+SIISzqY+9E4jz6CiZcB6YwwhVp6jWtYJB4dLlrJBtM0+39YPrqahI
isw9x85UA8TnqVnefCF5Y/7eT9ofV+9fp33ZGrRHkWnujViPfnmw0w+atULoHXSJ
9js3vYX0hKedzQ==
-----END CERTIFICATE-----
